target datalayout = "e-m:e-p270:32:32-p271:32:32-p272:64:64-i64:64-i128:128-f80:128-n8:16:32:64-S128"
target triple = "x86_64-pc-linux-gnu"

%struct.mbedtls_ssl_config = type { i32, i32, i8, i8, i8, i8, i8, i8, i8, i8, i8, i8, i16, i8, i8, i8, ptr, i32, ptr, ptr, ptr, ptr, ptr, ptr, ptr, ptr, ptr, ptr, ptr, ptr, ptr, ptr, ptr, ptr, ptr, ptr, ptr, i64, ptr, ptr, ptr, ptr, ptr, ptr, ptr, ptr, %struct.mbedtls_mpi, %struct.mbedtls_mpi, ptr, i64, ptr, i64, ptr, i32, i32, i32, i32, [8 x i8], i32, i32, %union.mbedtls_ssl_user_data_t, ptr, ptr }
%struct.mbedtls_mpi = type { ptr, i16, i16 }
%union.mbedtls_ssl_user_data_t = type { i64 }

; Function Attrs: nounwind uwtable
define hidden i32 @mbedtls_ssl_conf_cid(ptr noundef %0, i64 noundef %1, i32 noundef %2) #0 {
  %4 = alloca i32, align 4
  %5 = alloca ptr, align 8
  %6 = alloca i64, align 8
  %7 = alloca i32, align 4
  store ptr %0, ptr %5, align 8, !tbaa !3
  store i64 %1, ptr %6, align 8, !tbaa !8
  store i32 %2, ptr %7, align 4, !tbaa !10
  %8 = load i64, ptr %6, align 8, !tbaa !8
  %9 = icmp ugt i64 %8, 32
  br i1 %9, label %10, label %11

10:                                               ; preds = %3
  store i32 -28928, ptr %4, align 4
  br label %26

11:                                               ; preds = %3
  %12 = load i32, ptr %7, align 4, !tbaa !10
  %13 = icmp ne i32 %12, 1
  br i1 %13, label %14, label %18

14:                                               ; preds = %11
  %15 = load i32, ptr %7, align 4, !tbaa !10
  %16 = icmp ne i32 %15, 0
  br i1 %16, label %17, label %18

17:                                               ; preds = %14
  store i32 -28928, ptr %4, align 4
  br label %26

18:                                               ; preds = %14, %11
  %19 = load i32, ptr %7, align 4, !tbaa !10
  %20 = trunc i32 %19 to i8
  %21 = load ptr, ptr %5, align 8, !tbaa !3
  %22 = getelementptr inbounds nuw %struct.mbedtls_ssl_config, ptr %21, i32 0, i32 15
  store i8 %20, ptr %22, align 2, !tbaa !12
  %23 = load i64, ptr %6, align 8, !tbaa !8
  %24 = load ptr, ptr %5, align 8, !tbaa !3
  %25 = getelementptr inbounds nuw %struct.mbedtls_ssl_config, ptr %24, i32 0, i32 37
  store i64 %23, ptr %25, align 8, !tbaa !26
  store i32 0, ptr %4, align 4
  br label %26

26:                                               ; preds = %18, %17, %10
  %27 = load i32, ptr %4, align 4
  ret i32 %27
}