; Function Attrs: mustprogress nofree norecurse nosync nounwind willreturn memory(argmem: write) uwtable
define hidden range(i32 -28928, 1) i32 @mbedtls_ssl_conf_cid(ptr noundef writeonly captures(none) %0, i64 noundef %1, i32 noundef %2) local_unnamed_addr #0 {
  %4 = icmp ugt i64 %1, 32
  %or.cond = icmp ugt i32 %2, 1
  %or.cond9 = or i1 %4, %or.cond
  br i1 %or.cond9, label %9, label %5

5:                                                ; preds = %3
  %6 = trunc nuw i32 %2 to i8
  %7 = getelementptr inbounds nuw i8, ptr %0, i64 22
  store i8 %6, ptr %7, align 2, !tbaa !3
  %8 = getelementptr inbounds nuw i8, ptr %0, i64 192
  store i64 %1, ptr %8, align 8, !tbaa !22
  br label %9

9:                                                ; preds = %3, %5
  %.0 = phi i32 [ 0, %5 ], [ -28928, %3 ]
  ret i32 %.0
}